target datalayout = "e-m:e-p270:32:32-p271:32:32-p272:64:64-i64:64-i128:128-f80:128-n8:16:32:64-S128"
target triple = "x86_64-pc-linux-gnu"

%"class.llvm::opt::Option" = type { ptr, ptr }
%"struct.llvm::opt::OptTable::Info" = type { %"class.llvm::ArrayRef", %"class.llvm::StringLiteral", ptr, %"struct.std::array", ptr, i32, i8, i8, i32, i32, i16, i16, ptr, ptr }
%"class.llvm::ArrayRef" = type { ptr, i64 }
%"class.llvm::StringLiteral" = type { %"class.llvm::StringRef" }
%"class.llvm::StringRef" = type { ptr, i64 }
%"struct.std::array" = type { [1 x %"struct.std::pair"] }
%"struct.std::pair" = type { %"struct.std::array.0", ptr }
%"struct.std::array.0" = type { [2 x i32] }
%"class.llvm::opt::OptSpecifier" = type { i32 }

; Function Attrs: mustprogress nounwind uwtable
define linkonce_odr hidden void @_ZN4llvm3opt12OptSpecifierC2Ej(ptr noundef nonnull align 4 dereferenceable(4) %0, i32 noundef %1) unnamed_addr #0 comdat align 2 {
  %3 = alloca ptr, align 8
  %4 = alloca i32, align 4
  store ptr %0, ptr %3, align 8
  store i32 %1, ptr %4, align 4
  %5 = load ptr, ptr %3, align 8
  %6 = getelementptr inbounds nuw %"class.llvm::opt::OptSpecifier", ptr %5, i32 0, i32 0
  %7 = load i32, ptr %4, align 4
  store i32 %7, ptr %6, align 4
  ret void
}

; Function Attrs: mustprogress nounwind uwtable
define linkonce_odr hidden { ptr, ptr } @_ZNK4llvm3opt6Option8getGroupEv(ptr noundef nonnull align 8 dereferenceable(16) %0) #0 comdat align 2 {
  %2 = alloca %"class.llvm::opt::Option", align 8
  %3 = alloca ptr, align 8
  %4 = alloca %"class.llvm::opt::OptSpecifier", align 4
  store ptr %0, ptr %3, align 8
  %5 = load ptr, ptr %3, align 8
  %6 = getelementptr inbounds nuw %"class.llvm::opt::Option", ptr %5, i32 0, i32 1
  %7 = load ptr, ptr %6, align 8
  %8 = getelementptr inbounds nuw %"class.llvm::opt::Option", ptr %5, i32 0, i32 0
  %9 = load ptr, ptr %8, align 8
  %10 = getelementptr inbounds nuw %"struct.llvm::opt::OptTable::Info", ptr %9, i32 0, i32 10
  %11 = load i16, ptr %10, align 8
  %12 = zext i16 %11 to i32
  call void @_ZN4llvm3opt12OptSpecifierC2Ej(ptr noundef nonnull align 4 dereferenceable(4) %4, i32 noundef %12)
  %13 = getelementptr inbounds nuw %"class.llvm::opt::OptSpecifier", ptr %4, i32 0, i32 0
  %14 = load i32, ptr %13, align 4
  %15 = call { ptr, ptr } @_ZNK4llvm3opt8OptTable9getOptionENS0_12OptSpecifierE(ptr noundef nonnull align 8 dereferenceable(88) %7, i32 %14)
  %16 = getelementptr inbounds nuw { ptr, ptr }, ptr %2, i32 0, i32 0
  %17 = extractvalue { ptr, ptr } %15, 0
  store ptr %17, ptr %16, align 8
  %18 = getelementptr inbounds nuw { ptr, ptr }, ptr %2, i32 0, i32 1
  %19 = extractvalue { ptr, ptr } %15, 1
  store ptr %19, ptr %18, align 8
  %20 = load { ptr, ptr }, ptr %2, align 8
  ret { ptr, ptr } %20
}

; Function Attrs: mustprogress nounwind uwtable
define linkonce_odr hidden noundef i32 @_ZNK4llvm3opt12OptSpecifier5getIDEv(ptr noundef nonnull align 4 dereferenceable(4) %0) #0 comdat align 2 {
  %2 = alloca ptr, align 8
  store ptr %0, ptr %2, align 8
  %3 = load ptr, ptr %2, align 8
  %4 = getelementptr inbounds nuw %"class.llvm::opt::OptSpecifier", ptr %3, i32 0, i32 0
  %5 = load i32, ptr %4, align 4
  ret i32 %5
}

; Function Attrs: mustprogress nounwind uwtable
define linkonce_odr hidden noundef i32 @_ZNK4llvm3opt6Option5getIDEv(ptr noundef nonnull align 8 dereferenceable(16) %0) #0 comdat align 2 {
  %2 = alloca ptr, align 8
  store ptr %0, ptr %2, align 8
  %3 = load ptr, ptr %2, align 8
  %4 = getelementptr inbounds nuw %"class.llvm::opt::Option", ptr %3, i32 0, i32 0
  %5 = load ptr, ptr %4, align 8
  %6 = getelementptr inbounds nuw %"struct.llvm::opt::OptTable::Info", ptr %5, i32 0, i32 5
  %7 = load i32, ptr %6, align 8
  ret i32 %7
}

; Function Attrs: mustprogress nounwind uwtable
define linkonce_odr hidden noundef zeroext i1 @_ZNK4llvm3opt6Option7isValidEv(ptr noundef nonnull align 8 dereferenceable(16) %0) #0 comdat align 2 {
  %2 = alloca ptr, align 8
  store ptr %0, ptr %2, align 8
  %3 = load ptr, ptr %2, align 8
  %4 = getelementptr inbounds nuw %"class.llvm::opt::Option", ptr %3, i32 0, i32 0
  %5 = load ptr, ptr %4, align 8
  %6 = icmp ne ptr %5, null
  ret i1 %6
}

; Function Attrs: mustprogress nounwind uwtable
define linkonce_odr hidden { ptr, ptr } @_ZNK4llvm3opt6Option8getAliasEv(ptr noundef nonnull align 8 dereferenceable(16) %0) #0 comdat align 2 {
  %2 = alloca %"class.llvm::opt::Option", align 8
  %3 = alloca ptr, align 8
  %4 = alloca %"class.llvm::opt::OptSpecifier", align 4
  store ptr %0, ptr %3, align 8
  %5 = load ptr, ptr %3, align 8
  %6 = getelementptr inbounds nuw %"class.llvm::opt::Option", ptr %5, i32 0, i32 1
  %7 = load ptr, ptr %6, align 8
  %8 = getelementptr inbounds nuw %"class.llvm::opt::Option", ptr %5, i32 0, i32 0
  %9 = load ptr, ptr %8, align 8
  %10 = getelementptr inbounds nuw %"struct.llvm::opt::OptTable::Info", ptr %9, i32 0, i32 11
  %11 = load i16, ptr %10, align 2
  %12 = zext i16 %11 to i32
  call void @_ZN4llvm3opt12OptSpecifierC2Ej(ptr noundef nonnull align 4 dereferenceable(4) %4, i32 noundef %12)
  %13 = getelementptr inbounds nuw %"class.llvm::opt::OptSpecifier", ptr %4, i32 0, i32 0
  %14 = load i32, ptr %13, align 4
  %15 = call { ptr, ptr } @_ZNK4llvm3opt8OptTable9getOptionENS0_12OptSpecifierE(ptr noundef nonnull align 8 dereferenceable(88) %7, i32 %14)
  %16 = getelementptr inbounds nuw { ptr, ptr }, ptr %2, i32 0, i32 0
  %17 = extractvalue { ptr, ptr } %15, 0
  store ptr %17, ptr %16, align 8
  %18 = getelementptr inbounds nuw { ptr, ptr }, ptr %2, i32 0, i32 1
  %19 = extractvalue { ptr, ptr } %15, 1
  store ptr %19, ptr %18, align 8
  %20 = load { ptr, ptr }, ptr %2, align 8
  ret { ptr, ptr } %20
}

; Function Attrs: mustprogress nounwind uwtable
define dso_local noundef zeroext i1 @_ZNK4llvm3opt6Option7matchesENS0_12OptSpecifierE(ptr noundef nonnull align 8 dereferenceable(16) %0, i32 %1) #0 align 2 {
  %3 = alloca i1, align 1
  %4 = alloca %"class.llvm::opt::OptSpecifier", align 4
  %5 = alloca ptr, align 8
  %6 = alloca %"class.llvm::opt::Option", align 8
  %7 = alloca %"class.llvm::opt::OptSpecifier", align 4
  %8 = alloca %"class.llvm::opt::Option", align 8
  %9 = alloca %"class.llvm::opt::OptSpecifier", align 4
  %10 = getelementptr inbounds nuw %"class.llvm::opt::OptSpecifier", ptr %4, i32 0, i32 0
  store i32 %1, ptr %10, align 4
  store ptr %0, ptr %5, align 8
  %11 = load ptr, ptr %5, align 8
  %12 = call { ptr, ptr } @_ZNK4llvm3opt6Option8getAliasEv(ptr noundef nonnull align 8 dereferenceable(16) %11)
  %13 = getelementptr inbounds nuw { ptr, ptr }, ptr %6, i32 0, i32 0
  %14 = extractvalue { ptr, ptr } %12, 0
  store ptr %14, ptr %13, align 8
  %15 = getelementptr inbounds nuw { ptr, ptr }, ptr %6, i32 0, i32 1
  %16 = extractvalue { ptr, ptr } %12, 1
  store ptr %16, ptr %15, align 8
  %17 = call noundef zeroext i1 @_ZNK4llvm3opt6Option7isValidEv(ptr noundef nonnull align 8 dereferenceable(16) %6)
  br i1 %17, label %18, label %22

18:                                               ; preds = %2
  call void @llvm.memcpy.p0.p0.i64(ptr align 4 %7, ptr align 4 %4, i64 4, i1 false)
  %19 = getelementptr inbounds nuw %"class.llvm::opt::OptSpecifier", ptr %7, i32 0, i32 0
  %20 = load i32, ptr %19, align 4
  %21 = call noundef zeroext i1 @_ZNK4llvm3opt6Option7matchesENS0_12OptSpecifierE(ptr noundef nonnull align 8 dereferenceable(16) %6, i32 %20)
  store i1 %21, ptr %3, align 1
  br label %39

22:                                               ; preds = %2
  %23 = call noundef i32 @_ZNK4llvm3opt6Option5getIDEv(ptr noundef nonnull align 8 dereferenceable(16) %11)
  %24 = call noundef i32 @_ZNK4llvm3opt12OptSpecifier5getIDEv(ptr noundef nonnull align 4 dereferenceable(4) %4)
  %25 = icmp eq i32 %23, %24
  br i1 %25, label %26, label %27

26:                                               ; preds = %22
  store i1 true, ptr %3, align 1
  br label %39

27:                                               ; preds = %22
  %28 = call { ptr, ptr } @_ZNK4llvm3opt6Option8getGroupEv(ptr noundef nonnull align 8 dereferenceable(16) %11)
  %29 = getelementptr inbounds nuw { ptr, ptr }, ptr %8, i32 0, i32 0
  %30 = extractvalue { ptr, ptr } %28, 0
  store ptr %30, ptr %29, align 8
  %31 = getelementptr inbounds nuw { ptr, ptr }, ptr %8, i32 0, i32 1
  %32 = extractvalue { ptr, ptr } %28, 1
  store ptr %32, ptr %31, align 8
  %33 = call noundef zeroext i1 @_ZNK4llvm3opt6Option7isValidEv(ptr noundef nonnull align 8 dereferenceable(16) %8)
  br i1 %33, label %34, label %38

34:                                               ; preds = %27
  call void @llvm.memcpy.p0.p0.i64(ptr align 4 %9, ptr align 4 %4, i64 4, i1 false)
  %35 = getelementptr inbounds nuw %"class.llvm::opt::OptSpecifier", ptr %9, i32 0, i32 0
  %36 = load i32, ptr %35, align 4
  %37 = call noundef zeroext i1 @_ZNK4llvm3opt6Option7matchesENS0_12OptSpecifierE(ptr noundef nonnull align 8 dereferenceable(16) %8, i32 %36)
  store i1 %37, ptr %3, align 1
  br label %39

38:                                               ; preds = %27
  store i1 false, ptr %3, align 1
  br label %39

39:                                               ; preds = %38, %34, %26, %18
  %40 = load i1, ptr %3, align 1
  ret i1 %40
}