; Function Attrs: mustprogress nounwind uwtable
define dso_local noundef zeroext i1 @_ZNK4llvm3opt6Option7matchesENS0_12OptSpecifierE(ptr nocapture noundef nonnull readonly align 8 dereferenceable(16) %0, i32 %1) local_unnamed_addr #1 align 2 {
  %3 = alloca %"class.llvm::opt::Option", align 8
  %4 = alloca %"class.llvm::opt::Option", align 8
  %5 = getelementptr inbounds nuw i8, ptr %0, i64 8
  %6 = load ptr, ptr %5, align 8
  %7 = load ptr, ptr %0, align 8
  %8 = getelementptr inbounds nuw i8, ptr %7, i64 82
  %9 = load i16, ptr %8, align 2
  %10 = zext i16 %9 to i32
  %11 = tail call { ptr, ptr } @_ZNK4llvm3opt8OptTable9getOptionENS0_12OptSpecifierE(ptr noundef nonnull align 8 dereferenceable(88) %6, i32 %10) #12
  %12 = extractvalue { ptr, ptr } %11, 0
  store ptr %12, ptr %3, align 8
  %13 = getelementptr inbounds nuw i8, ptr %3, i64 8
  %14 = extractvalue { ptr, ptr } %11, 1
  store ptr %14, ptr %13, align 8
  %.not = icmp eq ptr %12, null
  br i1 %.not, label %15, label %.sink.split

15:                                               ; preds = %2
  %16 = load ptr, ptr %0, align 8
  %17 = getelementptr inbounds nuw i8, ptr %16, i64 64
  %18 = load i32, ptr %17, align 8
  %19 = icmp eq i32 %18, %1
  br i1 %19, label %30, label %20

20:                                               ; preds = %15
  %21 = load ptr, ptr %5, align 8
  %22 = getelementptr inbounds nuw i8, ptr %16, i64 80
  %23 = load i16, ptr %22, align 8
  %24 = zext i16 %23 to i32
  %25 = tail call { ptr, ptr } @_ZNK4llvm3opt8OptTable9getOptionENS0_12OptSpecifierE(ptr noundef nonnull align 8 dereferenceable(88) %21, i32 %24) #12
  %26 = extractvalue { ptr, ptr } %25, 0
  store ptr %26, ptr %4, align 8
  %27 = getelementptr inbounds nuw i8, ptr %4, i64 8
  %28 = extractvalue { ptr, ptr } %25, 1
  store ptr %28, ptr %27, align 8
  %.not5 = icmp eq ptr %26, null
  br i1 %.not5, label %30, label %.sink.split

.sink.split:                                      ; preds = %20, %2
  %.sink = phi ptr [ %3, %2 ], [ %4, %20 ]
  %29 = call noundef zeroext i1 @_ZNK4llvm3opt6Option7matchesENS0_12OptSpecifierE(ptr noundef nonnull align 8 dereferenceable(16) %.sink, i32 %1)
  br label %30

30:                                               ; preds = %.sink.split, %20, %15
  %.0 = phi i1 [ true, %15 ], [ false, %20 ], [ %29, %.sink.split ]
  ret i1 %.0
}